target datalayout = "e-m:e-p270:32:32-p271:32:32-p272:64:64-i64:64-i128:128-f80:128-n8:16:32:64-S128"
target triple = "x86_64-pc-linux-gnu"

%union.pthread_mutex_t = type { %struct.__pthread_mutex_s }
%struct.__pthread_mutex_s = type { i32, i32, i32, i32, i32, i16, i16, %struct.__pthread_internal_list }
%struct.__pthread_internal_list = type { ptr, ptr }
%union.pthread_cond_t = type { %struct.__pthread_cond_s }
%struct.__pthread_cond_s = type { %union.__atomic_wide_counter, %union.__atomic_wide_counter, [2 x i32], [2 x i32], i32, i32, [2 x i32] }
%union.__atomic_wide_counter = type { i64 }
%struct.jobgroup = type { %union.pthread_mutex_t, %union.pthread_cond_t, i32, i32, i32, i32, i32 }

@exit_mutex = external global %union.pthread_mutex_t, align 8
@progexit = external global i32, align 4

; Function Attrs: nounwind uwtable
define dso_local i32 @thrmgr_group_need_terminate(ptr noundef %0) #0 {
  %2 = alloca ptr, align 8
  %3 = alloca i32, align 4
  store ptr %0, ptr %2, align 8
  %4 = load ptr, ptr %2, align 8
  %5 = icmp ne ptr %4, null
  br i1 %5, label %6, label %16

6:                                                ; preds = %1
  %7 = load ptr, ptr %2, align 8
  %8 = getelementptr inbounds %struct.jobgroup, ptr %7, i32 0, i32 0
  %9 = call i32 @pthread_mutex_lock(ptr noundef %8) #8
  %10 = load ptr, ptr %2, align 8
  %11 = getelementptr inbounds %struct.jobgroup, ptr %10, i32 0, i32 6
  %12 = load i32, ptr %11, align 8
  store i32 %12, ptr %3, align 4
  %13 = load ptr, ptr %2, align 8
  %14 = getelementptr inbounds %struct.jobgroup, ptr %13, i32 0, i32 0
  %15 = call i32 @pthread_mutex_unlock(ptr noundef %14) #8
  br label %17

16:                                               ; preds = %1
  store i32 0, ptr %3, align 4
  br label %17

17:                                               ; preds = %16, %6
  %18 = call i32 @pthread_mutex_lock(ptr noundef @exit_mutex) #8
  %19 = load i32, ptr @progexit, align 4
  %20 = load i32, ptr %3, align 4
  %21 = or i32 %20, %19
  store i32 %21, ptr %3, align 4
  %22 = call i32 @pthread_mutex_unlock(ptr noundef @exit_mutex) #8
  %23 = load i32, ptr %3, align 4
  ret i32 %23
}