; Function Attrs: nounwind uwtable
define dso_local i32 @thrmgr_group_need_terminate(ptr noundef %0) local_unnamed_addr #0 {
  %.not = icmp eq ptr %0, null
  br i1 %.not, label %7, label %2

2:                                                ; preds = %1
  %3 = tail call i32 @pthread_mutex_lock(ptr noundef nonnull %0) #12
  %4 = getelementptr inbounds i8, ptr %0, i64 104
  %5 = load i32, ptr %4, align 8
  %6 = tail call i32 @pthread_mutex_unlock(ptr noundef nonnull %0) #12
  br label %7

7:                                                ; preds = %1, %2
  %.0 = phi i32 [ %5, %2 ], [ 0, %1 ]
  %8 = tail call i32 @pthread_mutex_lock(ptr noundef nonnull @exit_mutex) #12
  %9 = load i32, ptr @progexit, align 4
  %10 = or i32 %9, %.0
  %11 = tail call i32 @pthread_mutex_unlock(ptr noundef nonnull @exit_mutex) #12
  ret i32 %10
}